; Function Attrs: nounwind uwtable
define dso_local noundef ptr @_ZThn56_NK4node6crypto7TLSWrap5ErrorEv(ptr noundef %this) unnamed_addr #6 align 2 {
entry:
  %error_.i = getelementptr inbounds i8, ptr %this, i64 296
  %call.i = tail call noundef zeroext i1 @_ZNKSt7__cxx1112basic_stringIcSt11char_traitsIcESaIcEE5emptyEv(ptr noundef nonnull align 8 dereferenceable(32) %error_.i) #23
  br i1 %call.i, label %_ZNK4node6crypto7TLSWrap5ErrorEv.exit, label %cond.false.i

cond.false.i:                                     ; preds = %entry
  %call3.i = tail call noundef ptr @_ZNKSt7__cxx1112basic_stringIcSt11char_traitsIcESaIcEE5c_strEv(ptr noundef nonnull align 8 dereferenceable(32) %error_.i) #23
  br label %_ZNK4node6crypto7TLSWrap5ErrorEv.exit

_ZNK4node6crypto7TLSWrap5ErrorEv.exit:            ; preds = %entry, %cond.false.i
  %cond.i = phi ptr [ %call3.i, %cond.false.i ], [ null, %entry ]
  ret ptr %cond.i
}